; Function Attrs: nounwind uwtable
define noundef ptr @l___private_Init_Data_List_ToArray_0__List_filter_match__1_splitter___rarg(i8 noundef zeroext %0, ptr noundef %1, ptr noundef %2) local_unnamed_addr #0 {
  %4 = icmp eq i8 %0, 0
  br i1 %4, label %5, label %14

5:                                                ; preds = %3
  %6 = ptrtoint ptr %2 to i64
  %7 = and i64 %6, 1
  %.not9 = icmp eq i64 %7, 0
  br i1 %.not9, label %8, label %lean_inc.exit5

8:                                                ; preds = %5
  %.val.i = load i32, ptr %2, align 4, !tbaa !5
  %9 = icmp sgt i32 %.val.i, 0
  br i1 %9, label %10, label %12, !prof !10

10:                                               ; preds = %8
  %11 = add nuw i32 %.val.i, 1
  store i32 %11, ptr %2, align 4, !tbaa !5
  br label %lean_inc.exit5

12:                                               ; preds = %8
  %.not.i = icmp eq i32 %.val.i, 0
  br i1 %.not.i, label %lean_inc.exit5, label %13

13:                                               ; preds = %12
  tail call void @lean_inc_ref_cold(ptr noundef nonnull %2) #4
  br label %lean_inc.exit5

14:                                               ; preds = %3
  %15 = ptrtoint ptr %1 to i64
  %16 = and i64 %15, 1
  %.not = icmp eq i64 %16, 0
  br i1 %.not, label %17, label %lean_inc.exit5

17:                                               ; preds = %14
  %.val.i6 = load i32, ptr %1, align 4, !tbaa !5
  %18 = icmp sgt i32 %.val.i6, 0
  br i1 %18, label %19, label %21, !prof !10

19:                                               ; preds = %17
  %20 = add nuw i32 %.val.i6, 1
  store i32 %20, ptr %1, align 4, !tbaa !5
  br label %lean_inc.exit5

21:                                               ; preds = %17
  %.not.i7 = icmp eq i32 %.val.i6, 0
  br i1 %.not.i7, label %lean_inc.exit5, label %22

22:                                               ; preds = %21
  tail call void @lean_inc_ref_cold(ptr noundef nonnull %1) #4
  br label %lean_inc.exit5

lean_inc.exit5:                                   ; preds = %14, %19, %21, %22, %5, %10, %12, %13
  %.0 = phi ptr [ %2, %13 ], [ %2, %12 ], [ %2, %10 ], [ %2, %5 ], [ %1, %22 ], [ %1, %21 ], [ %1, %19 ], [ %1, %14 ]
  ret ptr %.0
}